c__builtin__
set
p1
((lp2
Vdrinking vessel
p3
aVwritings
p4
aVexhibitions
p5
aVhungarian international badminton championshipss
p6
aVdance
p7
aVformer countries
p8
aVpublic offices
p9
aVceramic
p10
aVgeochronological units
p11
aVbranches
p12
aVmonth
p13
aVfacilities
p14
aVfarms
p15
aVconcept
p16
aVbranch of science
p17
aVschool buildings
p18
aVdish
p19
aVtypes of sport
p20
aVbank
p21
aVinternal combustion engines
p22
aVnatural region of germany
p23
aVmilitary units
p24
aVrelationships
p25
aVtelevision stations
p26
aVfactories
p27
aVastronomical object
p28
aVreligion
p29
aVassociation football league
p30
aVgenre of sculpture
p31
aVlanguages
p32
aVfamilies of compound
p33
aVstructural element
p34
aVdiesel engines
p35
aVingredient
p36
aVhorse breeds
p37
aVdivision
p38
aVtime interval
p39
aVfictional organizations
p40
aVgarden
p41
aVdivisions
p42
aVengine families
p43
aVlandforms
p44
aVcomputer hardware
p45
aVcemeteries
p46
aVtablet computer
p47
aVpolytope operation
p48
aVtanks
p49
aVheadgear
p50
aVcycling races
p51
aVphysical object
p52
aVminerals
p53
aVhorse breed
p54
aVroom
p55
aVdomain names
p56
aVmiddle-earth races
p57
aVschool
p58
aVparliaments
p59
aVarchitectural styles
p60
aVdependent territories
p61
aVregional government
p62
aVpositions
p63
aVaircraft functional class
p64
aVtheatre festival
p65
aVtechnical standards
p66
aVgun
p67
aVtemple
p68
aVtravels
p69
aVmilitary unit type-size classes
p70
aVarchipelago
p71
aVschool building
p72
aVgame equipment
p73
aVelectionss in india
p74
aVarmed conflict
p75
aVart exhibition
p76
aVastronomical object types
p77
aVplannings
p78
aVneighborhood
p79
aVtemples
p80
aVtower blocks
p81
aVtrails
p82
aVstreets
p83
aVtransport infrastructure
p84
aVdog breed
p85
aVart movement
p86
aVrivers
p87
aVbattle
p88
aVonline database
p89
aVtelevision programs
p90
aVmartial artss
p91
aVmunicipal councils
p92
aVconcepts about norse culture
p93
aVlicenses
p94
aVtheories
p95
aVmachines
p96
aVdrinks
p97
aVhymn
p98
aVfictional characters
p99
aVsport competition
p100
aVfictional ethnic groups
p101
aVmilitary campaign
p102
aVvoluntary associations
p103
aVthoroughfares
p104
aVrecurring events
p105
aVnatural regions
p106
aVkorea open badminton championships
p107
aVgroup of humans
p108
aVperiodical literatures
p109
aVprogramming tool
p110
aVgeographic location
p111
aVonline databases
p112
aVchemical compounds
p113
aVtournaments
p114
aVrecurring tournaments
p115
aVguns
p116
aVnon-governmental organizations
p117
aVgrammatical categories
p118
aVmachine gun
p119
aVbehavior
p120
aVamphora
p121
aVfictional location
p122
aVprogramming tools
p123
aVcomponent
p124
aVlakes
p125
aVregimes
p126
aVswiss badminton championships
p127
aVgroups
p128
aVgeographic region
p129
aVequations
p130
aVtrail
p131
aVgerman badminton championshipss
p132
aVtrack gauges
p133
aVwriting implements
p134
aVproperty
p135
aVwelsh badminton championships
p136
aVmiddle-earth racess
p137
aVfictional character
p138
aVfictional locations
p139
aVrecurring event
p140
aVdeities
p141
aVcultural studiess
p142
aVreports
p143
aVmuseums
p144
aVscientific journal
p145
aVbusiness organizations
p146
aVpolytope operations
p147
aVheraldic symbol
p148
aVcauses of death
p149
aVfootball tournament
p150
aVchanges
p151
aVrailroad line
p152
aVartefacts
p153
aVprints
p154
aVflammable solid
p155
aVgeneral election
p156
aVfamily
p157
aVtelescopes
p158
aVbadminton at the commonwealth games
p159
aVart collection
p160
aVolympic sporting events
p161
aVorder
p162
aVtexts
p163
aVboat types
p164
aVnames
p165
aVcomputer program
p166
aVfestivals
p167
aVscientific instrument
p168
aVtools
p169
aVlandscape
p170
aVhotels
p171
aVviolent crimes
p172
aVmanufacturing
p173
aVmountain range
p174
aVcutting tool
p175
aVeuropean championship
p176
aVmedical procedure
p177
aVgerman business organizations
p178
aVterritories
p179
aVcompetition
p180
aVtennis tournaments
p181
aVdrinking vessels
p182
aVvehicle
p183
aVfilms
p184
aVcemetery
p185
aVclassification schemes
p186
aVfictional ethnic group
p187
aVmarkets
p188
aVcapital
p189
aVmilitary campaigns
p190
aVsecondary schools
p191
aVcycling race classes
p192
aVparliament
p193
aVchampionships
p194
aVstatutes
p195
aVsingle-day races
p196
aVaircraft models
p197
aVtype of cheese
p198
aVwars
p199
aVaward
p200
aVfictional energy
p201
aVmonarchic systems
p202
aVflag
p203
aVart genres
p204
aVaircraft family
p205
aVtennis tournament
p206
aVfrench administrative division
p207
aVabstract nouns
p208
aVheraldic symbols
p209
aVchurch
p210
aVorganizations
p211
aVwork of art
p212
aVword
p213
aVnoble families
p214
aVtelevision series
p215
aVcurrency
p216
aVtunnel
p217
aVscience
p218
aVequation
p219
aVvideo games
p220
aVroyal rank
p221
aVurban unit definitions
p222
aVstock characters
p223
aVhuman action
p224
aVhuman behaviours
p225
aVbattles
p226
aVunit of time
p227
aVpublications
p228
aVconcepts
p229
aVcycling team
p230
aVwaterway
p231
aVdevelopment stage of animals
p232
aVcutting tools
p233
aVmountain ranges
p234
aVparishes
p235
aVcommuter rails
p236
aVactivities
p237
aVprocess
p238
aVswedish open badminton championshipss
p239
aVmultiple unit
p240
aVconceptual model
p241
aVdays
p242
aVstates
p243
aVamphoras
p244
aVfoods
p245
aVagricultural machinery
p246
aVparish
p247
aVphrase
p248
aVairplane
p249
aVclothing
p250
aVliterary work
p251
aVjunctions
p252
aVinformation
p253
aVtelevision channels
p254
aVsecondary school
p255
aVsoftware framework
p256
aVart exhibitions
p257
aVdevelopment stage of animal
p258
aVparliamentary committees
p259
aVmilitary branches
p260
aVmachine
p261
aVcontracts
p262
aVfundamental state of matter
p263
aVgroups of humans
p264
aVmartial arts
p265
aVgeographical object
p266
aVwriting systems
p267
aVdialect
p268
aVplant
p269
aVmusical instruments
p270
aVconstituency
p271
aVclothings
p272
aVfarm
p273
aVcosmeticss
p274
aVcollection
p275
aVlexical items
p276
aVstill waterss
p277
aVapplications
p278
aVcatalog
p279
aVparliamentary committee
p280
aVperceptible objects
p281
aVlaw
p282
aVbulgarian international badminton championships
p283
aVliquid
p284
aVautomobiles
p285
aVmineral supergroups
p286
aVdeterminator for date of periodic occurrence
p287
aVindustry
p288
aVbranches of science
p289
aVarchipelagos
p290
aVlanguage families
p291
aVcold weapons
p292
aVmusic genres
p293
aVencyclopedia
p294
aVprecepts
p295
aVhuman-made rules
p296
aVmedia
p297
aVbanks
p298
aVtelevision genres
p299
aVwine
p300
aVcycling race
p301
aVacademic degree
p302
aVglittering generality
p303
aVfictional energies
p304
aVsocial science
p305
aVinternet genre
p306
aVlunar calendar
p307
aVpaintings
p308
aVbuilding components
p309
aVcomic format
p310
aVgrammatical category
p311
aVfictional humanoid
p312
aVshared universe
p313
aVsymbols
p314
aVship type
p315
aVact of parliament
p316
aVanatomical region
p317
aVgeometric shapes
p318
aVartistic theme
p319
aVdwelling
p320
aVdeity
p321
aVolympic sporting event
p322
aVgeneral elections
p323
aVmilitary unit type-size class
p324
aVindustries
p325
aVswiss open badminton championshipss
p326
aVgroup
p327
aVbranches of philosophy
p328
aVtechnical processes
p329
aVcomputers
p330
aVboard games
p331
aVgeographical indications
p332
aVdeeds
p333
aVarmed conflicts
p334
aVsymptoms
p335
aVcoats of arms
p336
aVrailway station
p337
aVholiday
p338
aVmobile device
p339
aVsocial groups
p340
aVstate variable
p341
aVgood
p342
aVjunction
p343
aVdiseases
p344
aVenvironmental issue
p345
aVarea of mathematics
p346
aVfood
p347
aVdam
p348
aVtype of distinction
p349
aVmaterial
p350
aVcultural properties
p351
aVoperations
p352
aVinterdisciplinary science
p353
aVcold weapon
p354
aVarchitectural structures
p355
aVfamily of compound
p356
aVwelsh international badminton championships
p357
aVart genre
p358
aVcommunities
p359
aVcommittees
p360
aVworks of art
p361
aVweapon families
p362
aVreligious text
p363
aVday
p364
aVprofessional associations
p365
aVstock character
p366
aVarticles
p367
aVterm
p368
aVscientific method
p369
aVbranch of philosophy
p370
aVname
p371
aVkorea open badminton championshipss
p372
aVsystem software
p373
aVassemblies
p374
aVnature reserves
p375
aVproteins
p376
aVrocks
p377
aVrockets
p378
aVtelevision station
p379
aVnational sports team
p380
aVrock
p381
aVvolcano
p382
aVmalaysia open badminton championships
p383
aVcalendar dates
p384
aVinterior spaces
p385
aVprotein
p386
aVgeographic locations
p387
aVcinematic techniques
p388
aVfictional astronomical object
p389
aVmusical forms
p390
aVnavigational aids
p391
aVsculpture
p392
aVtelescope
p393
aVarchaeological sites
p394
aVhouse
p395
aVmagazine genres
p396
aVsolution
p397
aVartistic types
p398
aVsociety
p399
aVtheatrical genre
p400
aVcurrencies
p401
aVhuman actions
p402
aVbands
p403
aVhymns
p404
aVunique identifier
p405
aVevent
p406
aVtriplestores
p407
aValbum
p408
aVcontainer
p409
aVcocktail
p410
aVsports clubs
p411
aVartwork series
p412
aVdialects
p413
aVpart of speech
p414
aVfactory
p415
aVcomputing platform
p416
aVlanguage family
p417
aVpolish open badminton championships
p418
aVcomputer programs
p419
aVsports club
p420
aVcombustion engine
p421
aVnational association football team
p422
aVzoological nomenclature
p423
aVship element
p424
aVitems with multiple objects
p425
aVnon-governmental organization
p426
aVtheory
p427
aVwines
p428
aVdenmark open badminton championshipss
p429
aVdenmark open badminton championships
p430
aVreligious denominations
p431
aVgerman business organization
p432
aVscientific instruments
p433
aVlater homonym
p434
aVrecurring sporting event
p435
aVpeninsula
p436
aVfilm studio
p437
aVmineral supergroupss
p438
aVmilitary decoration
p439
aVintegrated circuit
p440
aVorgan
p441
aVdutch open badminton championshipss
p442
aVus administrative territory
p443
aVlanguage
p444
aVministry
p445
aVphrases
p446
aVprofessions
p447
aVtrack gauge
p448
aVmobile devices
p449
aVaircraft power classes
p450
aVasteroid classifications
p451
aVministries
p452
aVbusiness enterprises
p453
aVnumeral systems
p454
aVpalaces
p455
aVdog breeds
p456
aVqualification
p457
aVautomobile
p458
aVelectronic medias
p459
aVtravel
p460
aVworld views
p461
aVdomain name
p462
aVcultural studies
p463
aVperceptible object
p464
aVcheese
p465
aVartistic type
p466
aVnarratives
p467
aVgnu/linuxes
p468
aVchemical compound
p469
aVmanuscript
p470
aVoccupations
p471
aVenvironmental issues
p472
aVczechoslovakian international badminton championshipss
p473
aVrailroads
p474
aVindirect election
p475
aVmicroscopes
p476
aVmetabolic processes
p477
aVaircraft families
p478
aVmilitary schools
p479
aVbiomes
p480
aVnonprofit organizations
p481
aVpolygons
p482
aVdisaster
p483
aVbus models
p484
aVactivity
p485
aVpublication
p486
aVservice
p487
aVfestival
p488
aVinfraspecific names
p489
aVcoasts
p490
aVsystem
p491
aVtechnics
p492
aVbiological processes
p493
aVindirect elections
p494
aVstatement
p495
aVbiological system
p496
aVgroups of objects
p497
aVphoto equipment
p498
aVpolitical parties
p499
aVdiesel engine
p500
aVoperating systems
p501
aVgeographic regions
p502
aVmuscles
p503
aVform of government
p504
aVfree software licenses
p505
aVrelationship
p506
aVboat type
p507
aVhuman-made rule
p508
aVtool
p509
aVvillages
p510
aVpark
p511
aVinternal combustion engine
p512
aVentities
p513
aVmythological greek character
p514
aVunit of measurement
p515
aVpart
p516
aVcartridges
p517
aValphabets
p518
aValbums
p519
aVcalendar date
p520
aVlexical item
p521
aVsymptom
p522
aVceramics
p523
aVcocktails
p524
aVarchitectural element
p525
aVtechnical process
p526
aVtelevision genre
p527
aVproduct lining
p528
aVstructures
p529
aVsport disciplines
p530
aVvolcanoes
p531
aVcategories of being
p532
aVfood product
p533
aVnavigational aid
p534
aVmexican administrative territories
p535
aVproject
p536
aVideologies
p537
aVinterdisciplinary sciences
p538
aVtitles
p539
aVletters
p540
aVjournalism genres
p541
aVwaterways
p542
aVgenders
p543
aVarmored personnel carriers
p544
aVcultural movement
p545
aVhorse race
p546
aVlocomotive classes
p547
aVhistoriographical concept
p548
aVbehaviors
p549
aVnatural disaster
p550
aVconflicts
p551
aVwatercourses
p552
aVpalace
p553
aVareas of mathematics
p554
aVtypes of distinction
p555
aVsculptures
p556
aVstreet
p557
aVsports teams
p558
aVmetabolic process
p559
aVbuildings
p560
aVaircraft classes
p561
aVencyclopedias
p562
aVchristian denominations
p563
aVhorse races
p564
aVproduct linings
p565
aVorgans
p566
aVorders
p567
aVkey events
p568
aVarchaeological site
p569
aVmountain
p570
aVformer administrative territory
p571
aVdocuments
p572
aVprofessional association
p573
aVreleases
p574
aVdishes
p575
aVengine configurations
p576
aVparks
p577
aVsciences
p578
aVdepiction
p579
aVarmored personnel carrier
p580
aVsporting event
p581
aVczechoslovakian international badminton championships
p582
aValgorithms
p583
aVracing
p584
aVnatural physical objects
p585
aVtunnels
p586
aVnational sports teams
p587
aVuniversities
p588
aVplay
p589
aVhotel
p590
aVapplied science
p591
aVsculpture techniques
p592
aVmonastery
p593
aVswedish administrative territories
p594
aVsystems
p595
aVstructural elements
p596
aVviolent crime
p597
aVpart of a plant
p598
aVletter
p599
aVposition
p600
aVdevice
p601
aVplays
p602
aVeducations
p603
aVaerodrome
p604
aVstatute
p605
aVphotographic technique
p606
aVmineral
p607
aVneighborhoods
p608
aVmilitary school
p609
aVartistic techniques
p610
aVtechnical systems
p611
aVdisease
p612
aVinternet genres
p613
aVtreaty
p614
aVworld championships
p615
aVconstruction
p616
aVmexican administrative territory
p617
aVdatabases
p618
aVnoble family
p619
aVfrench administrative divisions
p620
aVacademic disciplines
p621
aVabstract being
p622
aVlaws
p623
aVstones
p624
aVbodies of water
p625
aVastronomical objects
p626
aVset
p627
aVphenomenon
p628
aVcomputer language
p629
aVmonasteries
p630
aVtext
p631
aVassociation football leagues
p632
aVaffix
p633
aVlatin phrase
p634
aVanatomical structure
p635
aVnotations
p636
aVreligions
p637
aVcolors
p638
aVplanning
p639
aVwelsh badminton championshipss
p640
aVsolutions
p641
aVinterior space
p642
aVentity
p643
aVgroup of fictional characters
p644
aVfood products
p645
aVnucleic acid sequences
p646
aVall england badminton championshipss
p647
aVweapons
p648
aVknowledge
p649
aVmilitary unit size classes
p650
aVtitle
p651
aVcpu designs
p652
aVaerial bombs
p653
aVprint
p654
aVreligious denomination
p655
aVinstitution
p656
aVintellectual property
p657
aVphotographic techniques
p658
aVsourcess of law
p659
aVdependent territory
p660
aVcinematic technique
p661
aVformal grammars
p662
aVswedish administrative territory
p663
aVformer administrative territories
p664
aVchemical bond
p665
aVproduct
p666
aVsibling group
p667
aVmixture
p668
aVdutch open badminton championships
p669
aVreligious organizations
p670
aVnotation
p671
aVmonuments
p672
aVsport discipline
p673
aVcannon
p674
aVship types
p675
aVboard game
p676
aVfood ingredient
p677
aVcoast
p678
aVenumerations
p679
aVartistic technique
p680
aVelectrical apparatus 
p681
aVliterary genres
p682
aVnatural physical object
p683
aVbeauty contest
p684
aVwords
p685
aVchurches
p686
aVreport
p687
aVcomputer hardwares
p688
aVyears
p689
aVmanuscripts
p690
aVpublic holiday
p691
aVdwellings
p692
aVsocieties
p693
aVreligious texts
p694
aVprocesses
p695
aVgovernment agencies
p696
aVtheatrical genres
p697
aVrailway facilities
p698
aVadministrative territory
p699
aVpolitical territory
p700
aVgdr badminton championships
p701
aVmethod
p702
aVmedias
p703
aVmicroscope
p704
aVeuropean championships
p705
aVevent sequences
p706
aVrelease
p707
aVriver
p708
aVhealth problems
p709
aVresearch institutes
p710
aVrooms
p711
aVhealth sciences
p712
aVitem with multiple objects
p713
aVart
p714
aVcommittee
p715
aVmalaysia open badminton championshipss
p716
aVgenres of sculpture
p717
aVcombustion engines
p718
aVterrain
p719
aVchivalric orders
p720
aVvideo game genres
p721
aVsex
p722
aVgroups of fictitious objects
p723
aVbiological process
p724
aVcomputer
p725
aVcollectables
p726
aVresearch institute
p727
aVcatalogs
p728
aVcalendar
p729
aVsport
p730
aVdeterminators for date of periodic occurrence
p731
aVbadminton at the asian games
p732
aVconcertoes
p733
aVtransliteration
p734
aVdairy product
p735
aVprogramming languages
p736
aVcollectable
p737
aVtennis matches
p738
aVchemical bonds
p739
aVstate variables
p740
aVlibraries
p741
aVstate
p742
aVpunctuation marks
p743
aVcultural property
p744
aVmagazine genre
p745
aVspecial fields
p746
aVsport competitions
p747
aVmilitary unit
p748
aVsolid figures
p749
aVpolitical philosophies
p750
aVart movements
p751
aVserver software
p752
aVterms
p753
aVidentifier
p754
aVbridges
p755
aVsocial group
p756
aVinfraspecific name
p757
aVaircraft
p758
aVawards
p759
aVgeographical indication
p760
aVbody of water
p761
aVrailway facility
p762
aVarticle
p763
aVtreaties
p764
aVecclesiastical titles
p765
aVasteroid classification
p766
aVfootball tournaments
p767
aVhouses
p768
aVvisual arts
p769
aVroyal ranks
p770
aVbus model
p771
aVadministrative country subdivision
p772
aVlicense
p773
aVlandscapes
p774
aVranged weapon
p775
aVecclesiastical title
p776
aVcoexistences
p777
aVcontract
p778
aVbuilding component
p779
aVgdr badminton championshipss
p780
aVrecurring sporting events
p781
aVfamilies
p782
aVgames
p783
aVlandform
p784
aVliterary works
p785
aVhistorical periods
p786
aVauthority organs
p787
aVelectronic media
p788
aVjewelleries
p789
aVphysiological condition
p790
aVbridge
p791
aVcolor
p792
aVball games
p793
aVmythological greek characters
p794
aVcoexistence
p795
aVcommunity
p796
aVmusical ensemble
p797
aVgenre
p798
aVdances
p799
aVtechnical standard
p800
aVvillage
p801
aVelectrical apparatus
p802
aVhumen
p803
aVwriting
p804
aVracings
p805
aVdairy products
p806
aVcode
p807
aVarts
p808
aVcities
p809
aVmedical signs
p810
aVdams
p811
aVauthority organ
p812
aVmunicipal council
p813
aVairlines
p814
aVpolitical borders
p815
aVelections in india
p816
aVfictional humanoids
p817
aVchange
p818
aVstadium
p819
aVconstituencies
p820
aVterritory
p821
aVcontainers
p822
aVcosmetics
p823
aVfortifications
p824
aVvisual artss
p825
aVgovernment agency
p826
aVtournament
p827
aVchivalric order
p828
aVpolitical systems
p829
aVdrugs
p830
aVlocomotive class
p831
aVairplanes
p832
aVparts of speech
p833
aVenterprises
p834
aVchemical reaction
p835
aVtense
p836
aVstates of matter
p837
aVaffixes
p838
aVgroups of fictional characters
p839
aVsports team
p840
aVacademic degrees
p841
aVfilm award
p842
aVplants
p843
aVhomes
p844
aVgender
p845
aVconcept about norse culture
p846
aVtank
p847
aVstadia
p848
aVlegislature
p849
aVpolitical territories
p850
aVelections
p851
aVship elements
p852
aVdepictions
p853
aVcommuter rail
p854
aVglittering generalities
p855
aVwatercourse
p856
aVfictional organization
p857
aVnewspaper
p858
aVcycling race class
p859
aVcpu design
p860
aVaerodromes
p861
aVnucleic acid sequence
p862
aVutility software
p863
aVmusical ensembles
p864
aVcoat of arms
p865
aVsports league
p866
aVmonarchic system
p867
aVgerman open badminton championships
p868
aVproper noun
p869
aVmedical specialties
p870
aVlegal term
p871
aVnatural disasters
p872
aVnature reserve
p873
aVdrug
p874
aVmulti-sport event
p875
aVeducational institutions
p876
aVislamic branches
p877
aVadministrative country subdivisions
p878
aVwelsh international badminton championshipss
p879
aVspacecraft
p880
aVeducation
p881
aVfortification
p882
aValphabet
p883
aVliterary genre
p884
aVeducational institution
p885
aVcellular component
p886
aVenumeration
p887
aVrebellion
p888
aVtablet computers
p889
aVparts
p890
aVanatomical regions
p891
aVfilm
p892
aVhistorical period
p893
aVmixtures
p894
aVlifetimes
p895
aVmedical specialty
p896
aVpolitical party
p897
aVdocument
p898
aVevents
p899
aVconflict
p900
aVsexes
p901
aVtransport company
p902
aVpolitical border
p903
aVcartridge
p904
aVcycling teams
p905
aVdrink
p906
aVqualifications
p907
aVgenres
p908
aVholidays
p909
aVsporting events
p910
aVcodes
p911
aVliquids
p912
aVcharacters
p913
aVmosaic
p914
aVunits of measurement
p915
aVintellectual properties
p916
aVvideo game
p917
aVsports venue
p918
aVdatabase
p919
aVlegal terms
p920
aVweapon
p921
aVidentifiers
p922
aVfictional taxons
p923
aVtelevision program
p924
aVtime intervals
p925
aVmilitary decorations
p926
aVperson
p927
aVmaterials
p928
aVflags
p929
aVcomponents
p930
aVsets
p931
aVorganization
p932
aVmodel
p933
aVmuscle
p934
aVislamic branch
p935
aVscalar physical quantity
p936
aVtriplestore
p937
aVbadminton world championshipss
p938
aVmusical composition
p939
aVnatural sciences
p940
aVhuman behaviour
p941
aVrocket
p942
aVranged weapons
p943
aVrebellions
p944
aVanimal structure
p945
aVsolid figure
p946
aVnational association football teams
p947
aVswedish open badminton championships
p948
aVshape
p949
aVconstitutional amendments
p950
aVbooks
p951
aVzoological nomenclatures
p952
aVhuman
p953
aVterrains
p954
aVpolitical system
p955
aVstate of matter
p956
aVbiome
p957
aVprotected areas
p958
aVall england badminton championships
p959
aVproducts
p960
aVaircraft functional classes
p961
aVnumeral system
p962
aVcharacter
p963
aVlake
p964
aVdistricts of indonesia
p965
aVspacecrafts
p966
aVpeninsulas
p967
aVart collections
p968
aVcollections
p969
aVexhibition
p970
aVsources of law
p971
aVdigital camera
p972
aVtennis match
p973
aVregional governments
p974
aVlatin phrases
p975
aVnatural region
p976
aVarchitectural elements
p977
aVchemical substance
p978
aVarchitectural structure
p979
aVchemical substances
p980
aVtenses
p981
aVconcerto
p982
aVapplied sciences
p983
aVgeochronological unit
p984
aVflammable solids
p985
aVcalendars
p986
aVchemical reactions
p987
aVmedical procedures
p988
aVengine configuration
p989
aVfilm genre
p990
aVgame
p991
aVtheatre festivals
p992
aVbusiness enterprise
p993
aVchampionship
p994
aVmusical compositions
p995
aVsculpture technique
p996
aVrailroad
p997
aVtype of sport
p998
aVprojects
p999
aVfurniture
p1000
aVsoftware frameworks
p1001
aVbulgarian international badminton championshipss
p1002
aVshared universes
p1003
aVcause of death
p1004
aVhealth problem
p1005
aVschools
p1006
aVnutrients
p1007
aVcapitals
p1008
aVmilitary operation
p1009
aVproper nouns
p1010
aVhuman settlement
p1011
aVmusic genre
p1012
aVshapes
p1013
aVcommunications
p1014
aVgeometric shape
p1015
aVfree software license
p1016
aVunits of time
p1017
aVprogramming paradigms
p1018
aVmodes of transport
p1019
aVworks
p1020
aVbeauty contests
p1021
aVuniversity
p1022
aVcomic formats
p1023
aVunique identifiers
p1024
aVmethods
p1025
aVjewellery
p1026
aVpeople
p1027
aVeconomic branches
p1028
aVconstitutional amendment
p1029
aVphenomena
p1030
aVbusiness organization
p1031
aVnational championships
p1032
aVbiological systems
p1033
aVelection
p1034
aVband
p1035
aVimages
p1036
aVhome
p1037
aVmilitary operations
p1038
aVmultiple units
p1039
aVcellular components
p1040
aVaircrafts
p1041
aVassociation football club
p1042
aVpolish open badminton championshipss
p1043
aVnatural science
p1044
aVtransliterations
p1045
aVsports venues
p1046
aVpolitical organizations
p1047
aVheadgears
p1048
aVanatomical structures
p1049
aVacts of parliament
p1050
aVautomobile model
p1051
aVrailroad lines
p1052
aVlunar calendars
p1053
aVtechnical system
p1054
aVservice on internet
p1055
aVperiodical literature
p1056
aVnonprofit organization
p1057
aVmulti-sport events
p1058
aVvideo game genre
p1059
aVmarket
p1060
aVevent sequence
p1061
aVfictional astronomical objects
p1062
aVdistrict of indonesia
p1063
aVconstructions
p1064
aVintegrated circuits
p1065
aVprogramming language
p1066
aVdisasters
p1067
aVweapon family
p1068
aVadministrative territories
p1069
aVassembly
p1070
aVeconomic branch
p1071
aVthoroughfare
p1072
aVclassification scheme
p1073
aVtaxons
p1074
aVtechnicss
p1075
aVaircraft power class
p1076
aVgerman badminton championships
p1077
aVdigital cameras
p1078
aVcategory of being
p1079
aVspecial field
p1080
aVcompetitions
p1081
aVtransport infrastructures
p1082
aVsports leagues
p1083
aVcannons
p1084
aVmode of transport
p1085
aVphysical quantity
p1086
aVproperties
p1087
aVagricultural machineries
p1088
aVformal grammar
p1089
aVfictional taxon
p1090
aVstone
p1091
aVaspects of music
p1092
aVmachine guns
p1093
aVjapanese badminton championships
p1094
aVunsaturated hydrocarbon
p1095
aVplace with town privileges
p1096
aVnewspapers
p1097
aVmonths
p1098
aVyear
p1099
aVtaxon
p1100
aVoccupation
p1101
aVabstract noun
p1102
aVideology
p1103
aVmagazine
p1104
aVairline
p1105
aVswiss badminton championshipss
p1106
aVfilm studios
p1107
aVhungarian international badminton championships
p1108
aVmanufacturings
p1109
aVassociation football clubs
p1110
aVroad
p1111
aVsoftware
p1112
aVpolitical organization
p1113
aVcomputer languages
p1114
aVartefact
p1115
aVgoods
p1116
aVstatements
p1117
aVservices on internet
p1118
aVfacility
p1119
aVcommunication
p1120
aVrecurring tournament
p1121
aVjournalism genre
p1122
aVprofession
p1123
aVphysical objects
p1124
aVservices
p1125
aVmagazines
p1126
aVaspect of music
p1127
aVroads
p1128
aVswiss open badminton championships
p1129
aVcultural movements
p1130
aVsports
p1131
aVautomobile models
p1132
aVscientific methods
p1133
aVurban unit definition
p1134
aVhuman settlements
p1135
aVsibling groups
p1136
aVpeoples
p1137
aVnational championship
p1138
aVgerman open badminton championshipss
p1139
aVmuseum
p1140
aVcomputer data storages
p1141
aVlater homonyms
p1142
aVtypes of cheese
p1143
aVanimal structures
p1144
aVbadminton world championships
p1145
aVwar
p1146
aVtitle of honor
p1147
aVfunction
p1148
aVmountains
p1149
aVunsaturated hydrocarbons
p1150
aVfilm awards
p1151
aVbrand
p1152
aVcomic book series
p1153
aVscientific journals
p1154
aVcomputing platforms
p1155
aVrailway stations
p1156
aVmilitary unit size class
p1157
aVfundamental state of matters
p1158
aVlibrary
p1159
aVbranch
p1160
aVmusical form
p1161
aVkitchen utensil
p1162
aVmusical instrument
p1163
aVarchitectural style
p1164
aVfood ingredients
p1165
aVphysical quantities
p1166
aVinternational organizations
p1167
aVoperating system
p1168
aVconceptual models
p1169
aVbook series
p1170
aVtitles of honor
p1171
aVgroup of fictitious objects
p1172
aVdevices
p1173
aVtelevision channel
p1174
aVengineerings
p1175
aVmonument
p1176
aVsports equipment
p1177
aVexecutive branches
p1178
aVus administrative territories
p1179
aVsingle-day race
p1180
aVnatural region of germanies
p1181
aVkey event
p1182
aVastronomical object type
p1183
aVhealth science
p1184
aVplaces with town privileges
p1185
aVworld championship
p1186
aVengine family
p1187
aVchristian denomination
p1188
aVball game
p1189
aVprecept
p1190
aVengineering
p1191
aVscalar physical quantities
p1192
aVvoluntary association
p1193
aVforms of government
p1194
aVjapanese badminton championshipss
p1195
aVpolitical philosophy
p1196
aVlifetime
p1197
aVdeed
p1198
aVwork
p1199
aVworld view
p1200
aVbadmintons at the commonwealth games
p1201
aVregime
p1202
aVmedical sign
p1203
aVfunctions
p1204
aVtower block
p1205
aVpolygon
p1206
aVingredients
p1207
aVfilm genres
p1208
aVimage
p1209
aVinternational organization
p1210
aVfree software
p1211
aVsocial sciences
p1212
aVpublic office
p1213
aVapplication
p1214
aVbook
p1215
aVprogramming paradigm
p1216
aVstill waters
p1217
aVpunctuation markss
p1218
aVprotected area
p1219
aVartistic themes
p1220
aVaircraft class
p1221
aVoperation
p1222
aVmilitary branch
p1223
aVpublic holidays
p1224
aVmodels
p1225
aVtransport companies
p1226
aVsymbol
p1227
aVenterprise
p1228
aVwriting system
p1229
aVreligious organization
p1230
aVbadmintons at the asian games
p1231
aVparts of a plant
p1232
aVgeographical objects
p1233
aVaerial bomb
p1234
aVbrands
p1235
aVacademic discipline
p1236
aVhistoriographical concepts
p1237
aVphysiological conditions
p1238
aVstructure
p1239
aVbuilding
p1240
aVkitchen utensils
p1241
aValgorithm
p1242
aVformer country
p1243
aVpainting
p1244
aVvehicles
p1245
aVexecutive branch
p1246
aVinstitutions
p1247
aVgroup of objects
p1248
aVgnu/linux
p1249
aVaircraft model
p1250
aVcity
p1251
aVnarrative
p1252
aVnutrient
p1253
aVwriting implement
p1254
aVcomputer data storage
p1255
aVmosaics
p1256
aVgardens
p1257
aVlegislatures
p1258
aVabstract beings
p1259
atRp1260
.